target datalayout = "e-m:e-p270:32:32-p271:32:32-p272:64:64-i64:64-i128:128-f80:128-n8:16:32:64-S128"
target triple = "x86_64-unknown-linux-gnu"

%"class.duckdb::unique_ptr" = type { %"class.std::unique_ptr" }
%"class.std::unique_ptr" = type { %"struct.std::__uniq_ptr_data" }
%"struct.std::__uniq_ptr_data" = type { %"class.std::__uniq_ptr_impl" }
%"class.std::__uniq_ptr_impl" = type { %"class.std::tuple" }
%"class.std::tuple" = type { %"struct.std::_Tuple_impl" }
%"struct.std::_Tuple_impl" = type { %"struct.std::_Head_base.1" }
%"struct.std::_Head_base.1" = type { ptr }
%"class.duckdb::unique_ptr.37" = type { %"class.std::unique_ptr.38" }
%"class.std::unique_ptr.38" = type { %"struct.std::__uniq_ptr_data.39" }
%"struct.std::__uniq_ptr_data.39" = type { %"class.std::__uniq_ptr_impl.40" }
%"class.std::__uniq_ptr_impl.40" = type { %"class.std::tuple.41" }
%"class.std::tuple.41" = type { %"struct.std::_Tuple_impl.42" }
%"struct.std::_Tuple_impl.42" = type { %"struct.std::_Head_base.45" }
%"struct.std::_Head_base.45" = type { ptr }

; Function Attrs: mustprogress uwtable
define void @_ZN6duckdb11Transformer17TransformConstantERN17duckdb_libpgquery8PGAConstE(ptr dead_on_unwind noalias nocapture writable writeonly sret(%"class.duckdb::unique_ptr") align 8 %agg.result, ptr nocapture noundef nonnull readnone align 8 dereferenceable(208) %this, ptr nocapture noundef nonnull readonly align 8 dereferenceable(32) %c) local_unnamed_addr #0 align 2 personality ptr @__gxx_personality_v0 {
_ZNSt10unique_ptrIN6duckdb18ConstantExpressionESt14default_deleteIS1_EED2Ev.exit:
  %ref.tmp = alloca %"class.duckdb::unique_ptr.37", align 8
  call void @llvm.lifetime.start.p0(i64 8, ptr nonnull %ref.tmp) #19
  %val = getelementptr inbounds i8, ptr %c, i64 8
  %agg.tmp.sroa.0.0.copyload = load i32, ptr %val, align 8, !tbaa !105
  %agg.tmp.sroa.22.0.val.sroa_idx = getelementptr inbounds i8, ptr %c, i64 16
  %agg.tmp.sroa.22.0.copyload = load i64, ptr %agg.tmp.sroa.22.0.val.sroa_idx, align 8, !tbaa !20
  call void @_ZN6duckdb11Transformer14TransformValueEN17duckdb_libpgquery7PGValueE(ptr dead_on_unwind nonnull writable sret(%"class.duckdb::unique_ptr.37") align 8 %ref.tmp, ptr nonnull align 8 poison, i32 %agg.tmp.sroa.0.0.copyload, i64 %agg.tmp.sroa.22.0.copyload)
  %0 = load ptr, ptr %ref.tmp, align 8, !tbaa !14
  store ptr %0, ptr %agg.result, align 8, !tbaa !3
  call void @llvm.lifetime.end.p0(i64 8, ptr nonnull %ref.tmp) #19
  ret void
}