; Function Attrs: mustprogress uwtable
define void @_ZN6duckdb11Transformer17TransformConstantERN17duckdb_libpgquery8PGAConstE(ptr dead_on_unwind noalias nocapture writable writeonly sret(%"class.duckdb::unique_ptr") align 8 %agg.result, ptr nocapture noundef nonnull readnone align 8 dereferenceable(208) %this, ptr nocapture noundef nonnull readonly align 8 dereferenceable(32) %c) local_unnamed_addr #0 align 2 personality ptr @__gxx_personality_v0 {
_ZNSt10unique_ptrIN6duckdb18ConstantExpressionESt14default_deleteIS1_EED2Ev.exit:
  %val = getelementptr inbounds i8, ptr %c, i64 8
  %agg.tmp.sroa.0.0.copyload = load i32, ptr %val, align 8, !tbaa !99
  %agg.tmp.sroa.22.0.val.sroa_idx = getelementptr inbounds i8, ptr %c, i64 16
  %agg.tmp.sroa.22.0.copyload = load i64, ptr %agg.tmp.sroa.22.0.val.sroa_idx, align 8, !tbaa !20
  tail call void @_ZN6duckdb11Transformer14TransformValueEN17duckdb_libpgquery7PGValueE(ptr dead_on_unwind nonnull writable sret(%"class.duckdb::unique_ptr.37") align 8 %agg.result, ptr nonnull align 8 poison, i32 %agg.tmp.sroa.0.0.copyload, i64 %agg.tmp.sroa.22.0.copyload)
  ret void
}